target datalayout = "e-m:e-p270:32:32-p271:32:32-p272:64:64-i64:64-i128:128-f80:128-n8:16:32:64-S128"
target triple = "x86_64-pc-linux-gnu"

%struct.cl_fmap = type { ptr, ptr, ptr, i64, i64, i64, i64, i8, i8, i8, i64, i64, i64, i64, ptr, ptr, ptr, ptr, ptr, ptr, ptr, i8, [16 x i8], i8, [20 x i8], i8, [32 x i8], ptr, ptr }

@.str.38 = private unnamed_addr constant [36 x i8] c"fmap_unneed: attempted void unneed\0A\00", align 1
@.str.39 = private unnamed_addr constant [28 x i8] c"fmap: attempted oof unneed\0A\00", align 1
@.str.40 = private unnamed_addr constant [37 x i8] c"fmap_unneed: inconsistent map state\0A\00", align 1
@.str.41 = private unnamed_addr constant [40 x i8] c"fmap_unneed: unneed on a unlocked page\0A\00", align 1

; Function Attrs: nounwind uwtable
define internal void @fmap_unneed_page(ptr noundef %0, i64 noundef %1) #0 {
  %3 = alloca ptr, align 8
  %4 = alloca i64, align 8
  %5 = alloca i64, align 8
  store ptr %0, ptr %3, align 8
  store i64 %1, ptr %4, align 8
  %6 = load ptr, ptr %3, align 8
  %7 = getelementptr inbounds %struct.cl_fmap, ptr %6, i32 0, i32 27
  %8 = load ptr, ptr %7, align 8
  %9 = load i64, ptr %4, align 8
  %10 = getelementptr inbounds i64, ptr %8, i64 %9
  %11 = load i64, ptr %10, align 8
  store i64 %11, ptr %5, align 8
  %12 = load i64, ptr %5, align 8
  %13 = and i64 %12, 3221225472
  %14 = icmp eq i64 %13, 3221225472
  br i1 %14, label %15, label %40

15:                                               ; preds = %2
  %16 = load i64, ptr %5, align 8
  %17 = and i64 %16, 1073741823
  store i64 %17, ptr %5, align 8
  %18 = load i64, ptr %5, align 8
  %19 = icmp ugt i64 %18, 1
  br i1 %19, label %20, label %28

20:                                               ; preds = %15
  %21 = load ptr, ptr %3, align 8
  %22 = getelementptr inbounds %struct.cl_fmap, ptr %21, i32 0, i32 27
  %23 = load ptr, ptr %22, align 8
  %24 = load i64, ptr %4, align 8
  %25 = getelementptr inbounds i64, ptr %23, i64 %24
  %26 = load i64, ptr %25, align 8
  %27 = add i64 %26, -1
  store i64 %27, ptr %25, align 8
  br label %39

28:                                               ; preds = %15
  %29 = load i64, ptr %5, align 8
  %30 = icmp eq i64 %29, 1
  br i1 %30, label %31, label %37

31:                                               ; preds = %28
  %32 = load ptr, ptr %3, align 8
  %33 = getelementptr inbounds %struct.cl_fmap, ptr %32, i32 0, i32 27
  %34 = load ptr, ptr %33, align 8
  %35 = load i64, ptr %4, align 8
  %36 = getelementptr inbounds i64, ptr %34, i64 %35
  store i64 2147483647, ptr %36, align 8
  br label %38

37:                                               ; preds = %28
  call void (ptr, ...) @cli_errmsg(ptr noundef @.str.40)
  br label %38

38:                                               ; preds = %37, %31
  br label %39

39:                                               ; preds = %38, %20
  br label %41

40:                                               ; preds = %2
  call void (ptr, ...) @cli_warnmsg(ptr noundef @.str.41)
  br label %41

41:                                               ; preds = %40, %39
  ret void
}

; Function Attrs: nounwind uwtable
define internal i64 @fmap_which_page(ptr noundef %0, i64 noundef %1) #0 {
  %3 = alloca ptr, align 8
  %4 = alloca i64, align 8
  store ptr %0, ptr %3, align 8
  store i64 %1, ptr %4, align 8
  %5 = load i64, ptr %4, align 8
  %6 = load ptr, ptr %3, align 8
  %7 = getelementptr inbounds %struct.cl_fmap, ptr %6, i32 0, i32 5
  %8 = load i64, ptr %7, align 8
  %9 = udiv i64 %5, %8
  ret i64 %9
}

; Function Attrs: nounwind uwtable
define internal void @handle_unneed_off(ptr noundef %0, i64 noundef %1, i64 noundef %2) #0 {
  %4 = alloca ptr, align 8
  %5 = alloca i64, align 8
  %6 = alloca i64, align 8
  %7 = alloca i64, align 8
  %8 = alloca i64, align 8
  %9 = alloca i64, align 8
  store ptr %0, ptr %4, align 8
  store i64 %1, ptr %5, align 8
  store i64 %2, ptr %6, align 8
  %10 = load ptr, ptr %4, align 8
  %11 = getelementptr inbounds %struct.cl_fmap, ptr %10, i32 0, i32 7
  %12 = load i8, ptr %11, align 8
  %13 = trunc i8 %12 to i1
  br i1 %13, label %15, label %14

14:                                               ; preds = %3
  br label %96

15:                                               ; preds = %3
  %16 = load i64, ptr %6, align 8
  %17 = icmp ne i64 %16, 0
  br i1 %17, label %19, label %18

18:                                               ; preds = %15
  call void (ptr, ...) @cli_warnmsg(ptr noundef @.str.38)
  br label %96

19:                                               ; preds = %15
  %20 = load ptr, ptr %4, align 8
  %21 = getelementptr inbounds %struct.cl_fmap, ptr %20, i32 0, i32 11
  %22 = load i64, ptr %21, align 8
  %23 = load i64, ptr %5, align 8
  %24 = add i64 %23, %22
  store i64 %24, ptr %5, align 8
  %25 = load ptr, ptr %4, align 8
  %26 = getelementptr inbounds %struct.cl_fmap, ptr %25, i32 0, i32 13
  %27 = load i64, ptr %26, align 8
  %28 = icmp ugt i64 %27, 0
  br i1 %28, label %29, label %74

29:                                               ; preds = %19
  %30 = load i64, ptr %6, align 8
  %31 = icmp ugt i64 %30, 0
  br i1 %31, label %32, label %74

32:                                               ; preds = %29
  %33 = load i64, ptr %6, align 8
  %34 = load ptr, ptr %4, align 8
  %35 = getelementptr inbounds %struct.cl_fmap, ptr %34, i32 0, i32 13
  %36 = load i64, ptr %35, align 8
  %37 = icmp ule i64 %33, %36
  br i1 %37, label %38, label %74

38:                                               ; preds = %32
  %39 = load i64, ptr %5, align 8
  %40 = load ptr, ptr %4, align 8
  %41 = getelementptr inbounds %struct.cl_fmap, ptr %40, i32 0, i32 11
  %42 = load i64, ptr %41, align 8
  %43 = icmp uge i64 %39, %42
  br i1 %43, label %44, label %74

44:                                               ; preds = %38
  %45 = load i64, ptr %5, align 8
  %46 = load i64, ptr %6, align 8
  %47 = add i64 %45, %46
  %48 = load ptr, ptr %4, align 8
  %49 = getelementptr inbounds %struct.cl_fmap, ptr %48, i32 0, i32 11
  %50 = load i64, ptr %49, align 8
  %51 = load ptr, ptr %4, align 8
  %52 = getelementptr inbounds %struct.cl_fmap, ptr %51, i32 0, i32 13
  %53 = load i64, ptr %52, align 8
  %54 = add i64 %50, %53
  %55 = icmp ule i64 %47, %54
  br i1 %55, label %56, label %74

56:                                               ; preds = %44
  %57 = load i64, ptr %5, align 8
  %58 = load i64, ptr %6, align 8
  %59 = add i64 %57, %58
  %60 = load ptr, ptr %4, align 8
  %61 = getelementptr inbounds %struct.cl_fmap, ptr %60, i32 0, i32 11
  %62 = load i64, ptr %61, align 8
  %63 = icmp ugt i64 %59, %62
  br i1 %63, label %64, label %74

64:                                               ; preds = %56
  %65 = load i64, ptr %5, align 8
  %66 = load ptr, ptr %4, align 8
  %67 = getelementptr inbounds %struct.cl_fmap, ptr %66, i32 0, i32 11
  %68 = load i64, ptr %67, align 8
  %69 = load ptr, ptr %4, align 8
  %70 = getelementptr inbounds %struct.cl_fmap, ptr %69, i32 0, i32 13
  %71 = load i64, ptr %70, align 8
  %72 = add i64 %68, %71
  %73 = icmp ult i64 %65, %72
  br i1 %73, label %75, label %74

74:                                               ; preds = %64, %56, %44, %38, %32, %29, %19
  call void (ptr, ...) @cli_warnmsg(ptr noundef @.str.39)
  br label %96

75:                                               ; preds = %64
  %76 = load ptr, ptr %4, align 8
  %77 = load i64, ptr %5, align 8
  %78 = call i64 @fmap_which_page(ptr noundef %76, i64 noundef %77)
  store i64 %78, ptr %8, align 8
  %79 = load ptr, ptr %4, align 8
  %80 = load i64, ptr %5, align 8
  %81 = load i64, ptr %6, align 8
  %82 = add i64 %80, %81
  %83 = sub i64 %82, 1
  %84 = call i64 @fmap_which_page(ptr noundef %79, i64 noundef %83)
  store i64 %84, ptr %9, align 8
  %85 = load i64, ptr %8, align 8
  store i64 %85, ptr %7, align 8
  br label %86

86:                                               ; preds = %93, %75
  %87 = load i64, ptr %7, align 8
  %88 = load i64, ptr %9, align 8
  %89 = icmp ule i64 %87, %88
  br i1 %89, label %90, label %96

90:                                               ; preds = %86
  %91 = load ptr, ptr %4, align 8
  %92 = load i64, ptr %7, align 8
  call void @fmap_unneed_page(ptr noundef %91, i64 noundef %92)
  br label %93

93:                                               ; preds = %90
  %94 = load i64, ptr %7, align 8
  %95 = add i64 %94, 1
  store i64 %95, ptr %7, align 8
  br label %86

96:                                               ; preds = %86, %74, %18, %14
  ret void
}