; Function Attrs: nounwind uwtable
define internal void @handle_unneed_off(ptr nocapture noundef readonly %0, i64 noundef %1, i64 noundef %2) #0 {
  %4 = getelementptr inbounds i8, ptr %0, i64 56
  %5 = load i8, ptr %4, align 8
  %6 = trunc i8 %5 to i1
  br i1 %6, label %7, label %.loopexit

7:                                                ; preds = %3
  %.not = icmp eq i64 %2, 0
  br i1 %.not, label %.loopexit.sink.split, label %8

8:                                                ; preds = %7
  %9 = getelementptr inbounds i8, ptr %0, i64 72
  %10 = load i64, ptr %9, align 8
  %11 = add i64 %10, %1
  %12 = getelementptr inbounds i8, ptr %0, i64 88
  %13 = load i64, ptr %12, align 8
  %.not38 = icmp ult i64 %13, %2
  %.not39 = icmp ult i64 %11, %10
  %or.cond42 = select i1 %.not38, i1 true, i1 %.not39
  br i1 %or.cond42, label %.loopexit.sink.split, label %14

14:                                               ; preds = %8
  %15 = add i64 %11, %2
  %16 = add i64 %13, %10
  %.not40 = icmp ule i64 %15, %16
  %17 = icmp ugt i64 %15, %10
  %or.cond43 = and i1 %.not40, %17
  %18 = icmp ult i64 %11, %16
  %or.cond44 = and i1 %18, %or.cond43
  br i1 %or.cond44, label %19, label %.loopexit.sink.split

19:                                               ; preds = %14
  %20 = getelementptr i8, ptr %0, i64 40
  %.val = load i64, ptr %20, align 8
  %21 = udiv i64 %11, %.val
  %22 = add i64 %15, -1
  %23 = udiv i64 %22, %.val
  %.not4147 = icmp ugt i64 %21, %23
  br i1 %.not4147, label %.loopexit, label %.lr.ph

.lr.ph:                                           ; preds = %19
  %24 = getelementptr i8, ptr %0, i64 224
  br label %25

25:                                               ; preds = %.lr.ph, %fmap_unneed_page.exit
  %.048 = phi i64 [ %21, %.lr.ph ], [ %40, %fmap_unneed_page.exit ]
  %.val46 = load ptr, ptr %24, align 8
  %26 = getelementptr inbounds i64, ptr %.val46, i64 %.048
  %27 = load i64, ptr %26, align 8
  %28 = and i64 %27, 3221225472
  %29 = icmp eq i64 %28, 3221225472
  br i1 %29, label %30, label %39

30:                                               ; preds = %25
  %31 = and i64 %27, 1073741823
  %32 = icmp ugt i64 %31, 1
  br i1 %32, label %33, label %35

33:                                               ; preds = %30
  %34 = add nsw i64 %27, -1
  store i64 %34, ptr %26, align 8
  br label %fmap_unneed_page.exit

35:                                               ; preds = %30
  %36 = icmp eq i64 %31, 1
  br i1 %36, label %37, label %38

37:                                               ; preds = %35
  store i64 2147483647, ptr %26, align 8
  br label %fmap_unneed_page.exit

38:                                               ; preds = %35
  tail call void (ptr, ...) @cli_errmsg(ptr noundef nonnull @.str.40) #18
  br label %fmap_unneed_page.exit

39:                                               ; preds = %25
  tail call void (ptr, ...) @cli_warnmsg(ptr noundef nonnull @.str.41) #18
  br label %fmap_unneed_page.exit

fmap_unneed_page.exit:                            ; preds = %33, %37, %38, %39
  %40 = add i64 %.048, 1
  %.not41 = icmp ugt i64 %40, %23
  br i1 %.not41, label %.loopexit, label %25

.loopexit.sink.split:                             ; preds = %8, %14, %7
  %.str.39.sink = phi ptr [ @.str.38, %7 ], [ @.str.39, %14 ], [ @.str.39, %8 ]
  tail call void (ptr, ...) @cli_warnmsg(ptr noundef nonnull %.str.39.sink) #18
  br label %.loopexit

.loopexit:                                        ; preds = %fmap_unneed_page.exit, %.loopexit.sink.split, %19, %3
  ret void
}